target datalayout = "e-m:e-p270:32:32-p271:32:32-p272:64:64-i64:64-i128:128-f80:128-n8:16:32:64-S128"
target triple = "x86_64-unknown-linux-gnu"

%"class.QuantLib::ExponentialJump1dMesher" = type { %"class.QuantLib::Fdm1dMesher", double, double, double }
%"class.QuantLib::Fdm1dMesher" = type { ptr, %"class.std::vector", %"class.std::vector", %"class.std::vector" }
%"class.std::vector" = type { %"struct.std::_Vector_base" }
%"struct.std::_Vector_base" = type { %"struct.std::_Vector_base<double, std::allocator<double>>::_Vector_impl" }
%"struct.std::_Vector_base<double, std::allocator<double>>::_Vector_impl" = type { %"struct.std::_Vector_base<double, std::allocator<double>>::_Vector_impl_data" }
%"struct.std::_Vector_base<double, std::allocator<double>>::_Vector_impl_data" = type { ptr, ptr, ptr }
%"class.QuantLib::GammaFunction" = type { i8 }

; Function Attrs: mustprogress uwtable
define noundef double @_ZNK8QuantLib23ExponentialJump1dMesher15jumpSizeDensityEd(ptr noundef nonnull align 8 dereferenceable(104) %this, double noundef %x) #0 align 2 {
entry:
  %this.addr = alloca ptr, align 8
  %x.addr = alloca double, align 8
  %a = alloca double, align 8
  %gammaValue = alloca double, align 8
  %ref.tmp = alloca %"class.QuantLib::GammaFunction", align 1
  store ptr %this, ptr %this.addr, align 8, !tbaa !3
  store double %x, ptr %x.addr, align 8, !tbaa !9
  %this1 = load ptr, ptr %this.addr, align 8
  call void @llvm.lifetime.start.p0(i64 8, ptr %a) #16
  %jumpIntensity_ = getelementptr inbounds nuw %"class.QuantLib::ExponentialJump1dMesher", ptr %this1, i32 0, i32 2
  %0 = load double, ptr %jumpIntensity_, align 8, !tbaa !20
  %beta_ = getelementptr inbounds nuw %"class.QuantLib::ExponentialJump1dMesher", ptr %this1, i32 0, i32 1
  %1 = load double, ptr %beta_, align 8, !tbaa !13
  %div = fdiv double %0, %1
  %sub = fsub double 1.000000e+00, %div
  store double %sub, ptr %a, align 8, !tbaa !9
  call void @llvm.lifetime.start.p0(i64 8, ptr %gammaValue) #16
  call void @llvm.lifetime.start.p0(i64 1, ptr %ref.tmp) #16
  %jumpIntensity_2 = getelementptr inbounds nuw %"class.QuantLib::ExponentialJump1dMesher", ptr %this1, i32 0, i32 2
  %2 = load double, ptr %jumpIntensity_2, align 8, !tbaa !20
  %beta_3 = getelementptr inbounds nuw %"class.QuantLib::ExponentialJump1dMesher", ptr %this1, i32 0, i32 1
  %3 = load double, ptr %beta_3, align 8, !tbaa !13
  %div4 = fdiv double %2, %3
  %call = call noundef double @_ZNK8QuantLib13GammaFunction8logValueEd(ptr noundef nonnull align 1 dereferenceable(1) %ref.tmp, double noundef %div4)
  %call5 = call double @exp(double noundef %call) #16, !tbaa !22
  call void @llvm.lifetime.end.p0(i64 1, ptr %ref.tmp) #16
  store double %call5, ptr %gammaValue, align 8, !tbaa !9
  %4 = load double, ptr %x.addr, align 8, !tbaa !9
  %fneg = fneg double %4
  %eta_ = getelementptr inbounds nuw %"class.QuantLib::ExponentialJump1dMesher", ptr %this1, i32 0, i32 3
  %5 = load double, ptr %eta_, align 8, !tbaa !21
  %mul = fmul double %fneg, %5
  %call6 = call double @exp(double noundef %mul) #16, !tbaa !22
  %6 = load double, ptr %x.addr, align 8, !tbaa !9
  %7 = load double, ptr %a, align 8, !tbaa !9
  %fneg7 = fneg double %7
  %call8 = call double @pow(double noundef %6, double noundef %fneg7) #16, !tbaa !22
  %mul9 = fmul double %call6, %call8
  %eta_10 = getelementptr inbounds nuw %"class.QuantLib::ExponentialJump1dMesher", ptr %this1, i32 0, i32 3
  %8 = load double, ptr %eta_10, align 8, !tbaa !21
  %9 = load double, ptr %a, align 8, !tbaa !9
  %sub11 = fsub double 1.000000e+00, %9
  %call12 = call double @pow(double noundef %8, double noundef %sub11) #16, !tbaa !22
  %mul13 = fmul double %mul9, %call12
  %10 = load double, ptr %gammaValue, align 8, !tbaa !9
  %div14 = fdiv double %mul13, %10
  call void @llvm.lifetime.end.p0(i64 8, ptr %gammaValue) #16
  call void @llvm.lifetime.end.p0(i64 8, ptr %a) #16
  ret double %div14
}