; Function Attrs: mustprogress uwtable
define noundef double @_ZNK8QuantLib23ExponentialJump1dMesher15jumpSizeDensityEd(ptr nocapture noundef nonnull readonly align 8 dereferenceable(104) %this, double noundef %x) local_unnamed_addr #0 align 2 {
entry:
  %ref.tmp = alloca %"class.QuantLib::GammaFunction", align 1
  %jumpIntensity_ = getelementptr inbounds nuw i8, ptr %this, i64 88
  %0 = load double, ptr %jumpIntensity_, align 8, !tbaa !16
  %beta_ = getelementptr inbounds nuw i8, ptr %this, i64 80
  %1 = load double, ptr %beta_, align 8, !tbaa !6
  %div = fdiv double %0, %1
  %sub = fsub double 1.000000e+00, %div
  call void @llvm.lifetime.start.p0(i64 1, ptr nonnull %ref.tmp) #19
  %call = call noundef double @_ZNK8QuantLib13GammaFunction8logValueEd(ptr noundef nonnull align 1 dereferenceable(1) %ref.tmp, double noundef %div)
  %call5 = call double @exp(double noundef %call) #19, !tbaa !24
  call void @llvm.lifetime.end.p0(i64 1, ptr nonnull %ref.tmp) #19
  %fneg = fneg double %x
  %eta_ = getelementptr inbounds nuw i8, ptr %this, i64 96
  %2 = load double, ptr %eta_, align 8, !tbaa !17
  %mul = fmul double %2, %fneg
  %call6 = call double @exp(double noundef %mul) #19, !tbaa !24
  %fneg7 = fneg double %sub
  %call8 = call double @pow(double noundef %x, double noundef %fneg7) #19, !tbaa !24
  %mul9 = fmul double %call6, %call8
  %sub11 = fsub double 1.000000e+00, %sub
  %call12 = call double @pow(double noundef %2, double noundef %sub11) #19, !tbaa !24
  %mul13 = fmul double %mul9, %call12
  %div14 = fdiv double %mul13, %call5
  ret double %div14
}